BL51 BANKED LINKER/LOCATER V6.05                                                        02/08/2018  13:07:58  PAGE 1


BL51 BANKED LINKER/LOCATER V6.05, INVOKED BY:
D:\PROGRAM FILES\KEIL\C51\BIN\BL51.EXE test.obj TO test RAMSIZE (256)


MEMORY MODEL: SMALL


INPUT MODULES INCLUDED:
  test.obj (TEST)
  D:\PROGRAM FILES\KEIL\C51\LIB\C51S.LIB (?C_STARTUP)
  D:\PROGRAM FILES\KEIL\C51\LIB\C51S.LIB (?C?CSTPTR)
  D:\PROGRAM FILES\KEIL\C51\LIB\C51S.LIB (?C?CSTOPTR)
  D:\PROGRAM FILES\KEIL\C51\LIB\C51S.LIB (?C?ULSHR)
  D:\PROGRAM FILES\KEIL\C51\LIB\C51S.LIB (?C?LSHL)
  D:\PROGRAM FILES\KEIL\C51\LIB\C51S.LIB (?C_INIT)


LINK MAP OF MODULE:  test (TEST)


            TYPE    BASE      LENGTH    RELOCATION   SEGMENT NAME
            -----------------------------------------------------

            * * * * * * *   D A T A   M E M O R Y   * * * * * * *
            REG     0000H     0008H     ABSOLUTE     "REG BANK 0"
            DATA    0008H     001BH     UNIT         _DATA_GROUP_
            DATA    0023H     0008H     UNIT         ?DT?TEST
            IDATA   002BH     0001H     UNIT         ?STACK

            * * * * * * *   C O D E   M E M O R Y   * * * * * * *
            CODE    0000H     0003H     ABSOLUTE     
            CODE    0003H     008CH     UNIT         ?C_C51STARTUP
            CODE    008FH     0085H     UNIT         ?PR?CHANGEFOR788AS?TEST
            CODE    0114H     0061H     UNIT         ?PR?_SHOW?TEST
            CODE    0175H     005EH     UNIT         ?PR?_SELECT?TEST
            CODE    01D3H     005AH     UNIT         ?C?LIB_CODE
            CODE    022DH     0048H     UNIT         ?PR?_LONGTOROW?TEST
            CODE    0275H     0037H     UNIT         ?PR?MAIN?TEST
            CODE    02ACH     0035H     UNIT         ?PR?_READ1302?TEST
            CODE    02E1H     000DH     UNIT         ?C_INITSEG



OVERLAY MAP OF MODULE:   test (TEST)


SEGMENT                           DATA_GROUP 
  +--> CALLED SEGMENT           START    LENGTH
-----------------------------------------------
?C_C51STARTUP                   -----    -----
  +--> ?PR?MAIN?TEST
  +--> ?C_INITSEG

?PR?MAIN?TEST                   0008H    0004H
  +--> ?PR?_READ1302?TEST
  +--> ?PR?_SHOW?TEST

?PR?_SHOW?TEST                  000CH    000BH
BL51 BANKED LINKER/LOCATER V6.05                                                      02/08/2018  13:07:58  PAGE 2


  +--> ?PR?_SELECT?TEST

?PR?_SELECT?TEST                0017H    0008H
  +--> ?PR?_LONGTOROW?TEST
  +--> ?PR?CHANGEFOR788AS?TEST

?PR?_LONGTOROW?TEST             001FH    0004H



SYMBOL TABLE OF MODULE:  test (TEST)

  VALUE           TYPE          NAME
  ----------------------------------

  -------         MODULE        TEST
  C:0000H         SYMBOL        _ICE_DUMMY_
  D:0090H         PUBLIC        P1
  D:00A0H         PUBLIC        P2
  D:00B0H         PUBLIC        P3
  C:0175H         PUBLIC        _select
  D:00A8H         PUBLIC        IE
  D:00B8H         PUBLIC        IP
  C:0275H         PUBLIC        main
  B:00B0H.0       PUBLIC        SHCP
  C:022DH         PUBLIC        _longToRow
  D:0098H         PUBLIC        SCON
  D:0088H         PUBLIC        TCON
  D:0023H         PUBLIC        column595
  B:0090H.1       PUBLIC        DS1302CLK
  B:00B0H.1       PUBLIC        STCP
  C:0114H         PUBLIC        _show
  C:008FH         PUBLIC        changeFor788AS
  B:00B0H.3       PUBLIC        COL0D
  B:0090H.4       PUBLIC        COL1D
  B:0090H.5       PUBLIC        COL2D
  B:0090H.6       PUBLIC        COL3D
  B:0090H.0       PUBLIC        DS1302RST
  C:02ACH         PUBLIC        _read1302
  D:00C8H         PUBLIC        T2CON
  B:00B0H.2       PUBLIC        ROW0D
  B:00B0H.6       PUBLIC        ROW1D
  B:00B0H.7       PUBLIC        ROW2D
  B:0090H.3       PUBLIC        ROW3D
  B:0090H.2       PUBLIC        DS1302IO
  D:00D0H         PUBLIC        PSW
  D:0027H         PUBLIC        row595
  -------         PROC          _READ1302
  D:0007H         SYMBOL        addr
  -------         DO            
  D:0006H         SYMBOL        i
  D:0007H         SYMBOL        temp
  -------         ENDDO         
  C:02ACH         LINE#         80
  C:02ACH         LINE#         81
  C:02ACH         LINE#         83
  C:02AEH         LINE#         84
BL51 BANKED LINKER/LOCATER V6.05                                                      02/08/2018  13:07:58  PAGE 3


  C:02B0H         LINE#         85
  C:02B2H         LINE#         86
  C:02B4H         LINE#         87
  C:02B4H         LINE#         88
  C:02B6H         LINE#         89
  C:02BAH         LINE#         90
  C:02BCH         LINE#         91
  C:02C0H         LINE#         92
  C:02C2H         LINE#         93
  C:02C4H         LINE#         94
  C:02C5H         LINE#         95
  C:02C6H         LINE#         96
  C:02C8H         LINE#         97
  C:02C8H         LINE#         98
  C:02CCH         LINE#         99
  C:02CEH         LINE#         100
  C:02D1H         LINE#         101
  C:02D1H         LINE#         102
  C:02D4H         LINE#         103
  C:02D4H         LINE#         104
  C:02D6H         LINE#         106
  C:02D8H         LINE#         107
  C:02DAH         LINE#         108
  C:02DCH         LINE#         109
  C:02DEH         LINE#         110
  C:02E0H         LINE#         111
  C:02E0H         LINE#         112
  -------         ENDPROC       _READ1302
  -------         PROC          _LONGTOROW
  D:001FH         SYMBOL        dat
  D:0001H         SYMBOL        arr
  C:022DH         LINE#         114
  C:0235H         LINE#         115
  C:0235H         LINE#         116
  C:0239H         LINE#         117
  C:024DH         LINE#         118
  C:0261H         LINE#         119
  -------         ENDPROC       _LONGTOROW
  -------         PROC          CHANGEFOR788AS
  -------         DO            
  D:0005H         SYMBOL        i
  D:0007H         SYMBOL        left
  D:0006H         SYMBOL        right
  -------         ENDDO         
  C:008FH         LINE#         122
  C:008FH         LINE#         123
  C:008FH         LINE#         125
  C:0091H         LINE#         126
  C:0092H         LINE#         127
  C:0093H         LINE#         128
  C:0093H         LINE#         129
  C:009CH         LINE#         130
  C:009FH         LINE#         131
  C:00A3H         LINE#         132
  C:00A6H         LINE#         133
  C:00AAH         LINE#         134
  C:00ADH         LINE#         135
BL51 BANKED LINKER/LOCATER V6.05                                                      02/08/2018  13:07:58  PAGE 4


  C:00B1H         LINE#         136
  C:00B4H         LINE#         137
  C:00B8H         LINE#         138
  C:00BBH         LINE#         139
  C:00BFH         LINE#         140
  C:00C2H         LINE#         141
  C:00C6H         LINE#         142
  C:00C9H         LINE#         143
  C:00CDH         LINE#         144
  C:00D0H         LINE#         146
  C:00D9H         LINE#         147
  C:00DCH         LINE#         148
  C:00E0H         LINE#         149
  C:00E3H         LINE#         150
  C:00E7H         LINE#         151
  C:00EAH         LINE#         152
  C:00EEH         LINE#         153
  C:00F1H         LINE#         154
  C:00F5H         LINE#         155
  C:00F8H         LINE#         156
  C:00FCH         LINE#         157
  C:00FFH         LINE#         158
  C:0103H         LINE#         159
  C:0106H         LINE#         160
  C:010AH         LINE#         161
  C:010DH         LINE#         162
  C:0113H         LINE#         163
  -------         ENDPROC       CHANGEFOR788AS
  -------         PROC          _SELECT
  D:0004H         SYMBOL        row
  D:001BH         SYMBOL        column
  -------         DO            
  D:0006H         SYMBOL        i
  -------         ENDDO         
  C:0175H         LINE#         165
  C:0175H         LINE#         166
  C:0175H         LINE#         168
  C:017EH         LINE#         169
  C:018DH         LINE#         170
  C:0190H         LINE#         171
  C:0194H         LINE#         172
  C:0194H         LINE#         174
  C:0199H         LINE#         175
  C:019EH         LINE#         176
  C:01A3H         LINE#         177
  C:01A8H         LINE#         178
  C:01ADH         LINE#         179
  C:01B2H         LINE#         180
  C:01B7H         LINE#         181
  C:01BCH         LINE#         182
  C:01BEH         LINE#         183
  C:01BFH         LINE#         184
  C:01C1H         LINE#         185
  C:01CCH         LINE#         186
  C:01CEH         LINE#         187
  C:01CFH         LINE#         188
  C:01D0H         LINE#         189
BL51 BANKED LINKER/LOCATER V6.05                                                      02/08/2018  13:07:58  PAGE 5


  C:01D2H         LINE#         190
  -------         ENDPROC       _SELECT
  -------         PROC          _SHOW
  D:0002H         SYMBOL        signalMonth
  -------         DO            
  D:000CH         SYMBOL        row
  D:000DH         SYMBOL        column
  D:000EH         SYMBOL        i
  D:000FH         SYMBOL        rlist
  D:0013H         SYMBOL        clist
  D:0002H         SYMBOL        myMonth
  -------         ENDDO         
  C:0114H         LINE#         192
  C:0118H         LINE#         193
  C:0118H         LINE#         195
  C:0129H         LINE#         197
  C:0129H         LINE#         199
  C:0135H         LINE#         200
  C:013AH         LINE#         230
  C:014FH         LINE#         231
  C:0166H         LINE#         232
  -------         ENDPROC       _SHOW
  -------         PROC          MAIN
  -------         DO            
  D:0008H         SYMBOL        monthCount
  D:000AH         SYMBOL        i
  D:000BH         SYMBOL        j
  -------         ENDDO         
  C:0275H         LINE#         236
  C:0275H         LINE#         237
  C:0275H         LINE#         240
  C:0275H         LINE#         241
  C:0275H         LINE#         242
  C:0278H         LINE#         243
  C:0278H         LINE#         244
  C:0281H         LINE#         245
  C:0281H         LINE#         246
  C:0288H         LINE#         247
  C:028EH         LINE#         248
  C:0291H         LINE#         249
  C:0298H         LINE#         250
  C:02A1H         LINE#         251
  -------         ENDPROC       MAIN
  -------         ENDMOD        TEST

  -------         MODULE        ?C?CSTPTR
  C:01D3H         PUBLIC        ?C?CSTPTR
  -------         ENDMOD        ?C?CSTPTR

  -------         MODULE        ?C?CSTOPTR
  C:01E5H         PUBLIC        ?C?CSTOPTR
  -------         ENDMOD        ?C?CSTOPTR

  -------         MODULE        ?C?ULSHR
  C:0207H         PUBLIC        ?C?ULSHR
  -------         ENDMOD        ?C?ULSHR

BL51 BANKED LINKER/LOCATER V6.05                                                      02/08/2018  13:07:58  PAGE 6


  -------         MODULE        ?C?LSHL
  C:021AH         PUBLIC        ?C?LSHL
  -------         ENDMOD        ?C?LSHL

Program Size: data=44.0 xdata=0 code=750
LINK/LOCATE RUN COMPLETE.  0 WARNING(S),  0 ERROR(S)
