BL51 BANKED LINKER/LOCATER V6.05                                                        02/05/2018  13:01:45  PAGE 1


BL51 BANKED LINKER/LOCATER V6.05, INVOKED BY:
C:\KEIL\C51\BIN\BL51.EXE test.obj TO test RAMSIZE (256)


MEMORY MODEL: SMALL


INPUT MODULES INCLUDED:
  test.obj (TEST)
  C:\KEIL\C51\LIB\C51S.LIB (?C_STARTUP)
  C:\KEIL\C51\LIB\C51S.LIB (?C?LNOT)
  C:\KEIL\C51\LIB\C51S.LIB (?C?ULSHR)
  C:\KEIL\C51\LIB\C51S.LIB (?C?LSHL)


LINK MAP OF MODULE:  test (TEST)


            TYPE    BASE      LENGTH    RELOCATION   SEGMENT NAME
            -----------------------------------------------------

            * * * * * * *   D A T A   M E M O R Y   * * * * * * *
            REG     0000H     0008H     ABSOLUTE     "REG BANK 0"
            DATA    0008H     0015H     UNIT         _DATA_GROUP_
            IDATA   001DH     0001H     UNIT         ?STACK

            * * * * * * *   C O D E   M E M O R Y   * * * * * * *
            CODE    0000H     0003H     ABSOLUTE     
            CODE    0003H     011CH     UNIT         ?PR?_SELECT?TEST
            CODE    011FH     010AH     UNIT         ?PR?_SHOW?TEST
            CODE    0229H     0037H     UNIT         ?PR?MAIN?TEST
            CODE    0260H     0035H     UNIT         ?PR?_READ1302?TEST
            CODE    0295H     0033H     UNIT         ?C?LIB_CODE
            CODE    02C8H     000CH     UNIT         ?C_C51STARTUP



OVERLAY MAP OF MODULE:   test (TEST)


SEGMENT                          DATA_GROUP 
  +--> CALLED SEGMENT          START    LENGTH
----------------------------------------------
?C_C51STARTUP                  -----    -----
  +--> ?PR?MAIN?TEST

?PR?MAIN?TEST                  0008H    0002H
  +--> ?PR?_READ1302?TEST
  +--> ?PR?_SHOW?TEST

?PR?_SHOW?TEST                 000AH    000BH
  +--> ?PR?_SELECT?TEST

?PR?_SELECT?TEST               0015H    0008H



SYMBOL TABLE OF MODULE:  test (TEST)
BL51 BANKED LINKER/LOCATER V6.05                                                      02/05/2018  13:01:45  PAGE 2



  VALUE           TYPE          NAME
  ----------------------------------

  -------         MODULE        TEST
  C:0000H         SYMBOL        _ICE_DUMMY_
  D:0090H         PUBLIC        P1
  D:00A0H         PUBLIC        P2
  D:00B0H         PUBLIC        P3
  C:001EH         PUBLIC        _select
  D:00A8H         PUBLIC        IE
  D:00B8H         PUBLIC        IP
  C:0229H         PUBLIC        main
  B:00B0H.0       PUBLIC        SHCP
  D:0098H         PUBLIC        SCON
  D:0088H         PUBLIC        TCON
  B:0090H.1       PUBLIC        DS1302CLK
  B:00B0H.1       PUBLIC        STCP
  C:011FH         PUBLIC        _show
  B:00B0H.3       PUBLIC        COL0D
  B:0090H.4       PUBLIC        COL1D
  B:0090H.5       PUBLIC        COL2D
  B:0090H.6       PUBLIC        COL3D
  B:0090H.0       PUBLIC        DS1302RST
  C:0260H         PUBLIC        _read1302
  D:00C8H         PUBLIC        T2CON
  B:00B0H.2       PUBLIC        ROW0D
  B:00B0H.6       PUBLIC        ROW1D
  B:00B0H.7       PUBLIC        ROW2D
  B:0090H.3       PUBLIC        ROW3D
  B:0090H.2       PUBLIC        DS1302IO
  D:00D0H         PUBLIC        PSW
  -------         PROC          _READ1302
  D:0007H         SYMBOL        addr
  -------         DO            
  D:0006H         SYMBOL        i
  D:0007H         SYMBOL        temp
  -------         ENDDO         
  C:0260H         LINE#         78
  C:0260H         LINE#         79
  C:0260H         LINE#         81
  C:0262H         LINE#         82
  C:0264H         LINE#         83
  C:0266H         LINE#         84
  C:0268H         LINE#         85
  C:0268H         LINE#         86
  C:026AH         LINE#         87
  C:026EH         LINE#         88
  C:0270H         LINE#         89
  C:0274H         LINE#         90
  C:0276H         LINE#         91
  C:0278H         LINE#         92
  C:0279H         LINE#         93
  C:027AH         LINE#         94
  C:027CH         LINE#         95
  C:027CH         LINE#         96
  C:0280H         LINE#         97
BL51 BANKED LINKER/LOCATER V6.05                                                      02/05/2018  13:01:45  PAGE 3


  C:0282H         LINE#         98
  C:0285H         LINE#         99
  C:0285H         LINE#         100
  C:0288H         LINE#         101
  C:0288H         LINE#         102
  C:028AH         LINE#         104
  C:028CH         LINE#         105
  C:028EH         LINE#         106
  C:0290H         LINE#         107
  C:0292H         LINE#         108
  C:0294H         LINE#         109
  C:0294H         LINE#         110
  -------         ENDPROC       _READ1302
  -------         PROC          L?0035
  -------         ENDPROC       L?0035
  -------         PROC          _SELECT
  D:0015H         SYMBOL        row
  D:0019H         SYMBOL        column
  -------         DO            
  D:0002H         SYMBOL        i
  -------         ENDDO         
  C:001EH         LINE#         112
  C:0026H         LINE#         113
  C:0026H         LINE#         115
  C:0031H         LINE#         116
  C:0044H         LINE#         117
  C:0048H         LINE#         118
  C:0048H         LINE#         120
  C:0060H         LINE#         121
  C:0076H         LINE#         122
  C:008FH         LINE#         123
  C:00A5H         LINE#         124
  C:00BEH         LINE#         125
  C:00D4H         LINE#         126
  C:00EDH         LINE#         127
  C:0103H         LINE#         128
  C:0105H         LINE#         129
  C:0106H         LINE#         130
  C:0108H         LINE#         131
  C:0118H         LINE#         132
  C:011AH         LINE#         133
  C:011BH         LINE#         134
  C:011CH         LINE#         135
  C:011EH         LINE#         136
  -------         ENDPROC       _SELECT
  -------         PROC          _SHOW
  D:0002H         SYMBOL        signalMonth
  -------         DO            
  D:000AH         SYMBOL        row
  D:000BH         SYMBOL        column
  D:000CH         SYMBOL        i
  D:000DH         SYMBOL        rlist
  D:0011H         SYMBOL        clist
  D:0002H         SYMBOL        myMonth
  -------         ENDDO         
  C:011FH         LINE#         138
  C:0123H         LINE#         139
BL51 BANKED LINKER/LOCATER V6.05                                                      02/05/2018  13:01:45  PAGE 4


  C:0123H         LINE#         141
  C:0134H         LINE#         143
  C:0134H         LINE#         145
  C:0140H         LINE#         146
  C:0145H         LINE#         147
  C:0156H         LINE#         148
  C:0156H         LINE#         149
  C:0160H         LINE#         150
  C:016AH         LINE#         151
  C:016DH         LINE#         152
  C:0171H         LINE#         153
  C:017AH         LINE#         154
  C:0187H         LINE#         155
  C:0187H         LINE#         156
  C:019CH         LINE#         157
  C:01AEH         LINE#         158
  C:01B2H         LINE#         159
  C:01C1H         LINE#         160
  C:01C4H         LINE#         161
  C:01CEH         LINE#         162
  C:01CEH         LINE#         163
  C:01E3H         LINE#         164
  C:01F5H         LINE#         165
  C:01F9H         LINE#         166
  C:0203H         LINE#         167
  C:021AH         LINE#         168
  -------         ENDPROC       _SHOW
  -------         PROC          MAIN
  -------         DO            
  D:0082H         SYMBOL        monthCount
  D:0008H         SYMBOL        i
  D:0009H         SYMBOL        j
  -------         ENDDO         
  C:0229H         LINE#         172
  C:0229H         LINE#         173
  C:0229H         LINE#         176
  C:0229H         LINE#         177
  C:0229H         LINE#         178
  C:022CH         LINE#         179
  C:022CH         LINE#         180
  C:0235H         LINE#         181
  C:0235H         LINE#         182
  C:023CH         LINE#         183
  C:0242H         LINE#         184
  C:0245H         LINE#         185
  C:024CH         LINE#         186
  C:0255H         LINE#         187
  -------         ENDPROC       MAIN
  -------         ENDMOD        TEST

  -------         MODULE        ?C?LNOT
  C:0295H         PUBLIC        ?C?LNOT
  -------         ENDMOD        ?C?LNOT

  -------         MODULE        ?C?ULSHR
  C:02A2H         PUBLIC        ?C?ULSHR
  -------         ENDMOD        ?C?ULSHR
BL51 BANKED LINKER/LOCATER V6.05                                                      02/05/2018  13:01:45  PAGE 5



  -------         MODULE        ?C?LSHL
  C:02B5H         PUBLIC        ?C?LSHL
  -------         ENDMOD        ?C?LSHL

Program Size: data=30.0 xdata=0 code=724
LINK/LOCATE RUN COMPLETE.  0 WARNING(S),  0 ERROR(S)
